target datalayout = "e-m:e-p270:32:32-p271:32:32-p272:64:64-i64:64-i128:128-f80:128-n8:16:32:64-S128"
target triple = "x86_64-pc-linux-gnu"

@.str.1 = private unnamed_addr constant [12 x i8] c"#size-cells\00", align 1

; Function Attrs: inlinehint nounwind uwtable
define internal i32 @fdt32_to_cpu(i32 noundef %0) #2 {
  %2 = alloca i32, align 4
  store i32 %0, ptr %2, align 4, !tbaa !7
  %3 = getelementptr inbounds i8, ptr %2, i64 0
  %4 = load i8, ptr %3, align 4, !tbaa !15
  %5 = zext i8 %4 to i64
  %6 = shl i64 %5, 24
  %7 = getelementptr inbounds i8, ptr %2, i64 1
  %8 = load i8, ptr %7, align 1, !tbaa !15
  %9 = zext i8 %8 to i64
  %10 = shl i64 %9, 16
  %11 = or i64 %6, %10
  %12 = getelementptr inbounds i8, ptr %2, i64 2
  %13 = load i8, ptr %12, align 2, !tbaa !15
  %14 = zext i8 %13 to i64
  %15 = shl i64 %14, 8
  %16 = or i64 %11, %15
  %17 = getelementptr inbounds i8, ptr %2, i64 3
  %18 = load i8, ptr %17, align 1, !tbaa !15
  %19 = zext i8 %18 to i64
  %20 = or i64 %16, %19
  %21 = trunc i64 %20 to i32
  ret i32 %21
}

; Function Attrs: nounwind uwtable
define internal i32 @fdt_cells(ptr noundef %0, i32 noundef %1, ptr noundef %2) #0 {
  %4 = alloca i32, align 4
  %5 = alloca ptr, align 8
  %6 = alloca i32, align 4
  %7 = alloca ptr, align 8
  %8 = alloca ptr, align 8
  %9 = alloca i32, align 4
  %10 = alloca i32, align 4
  %11 = alloca i32, align 4
  store ptr %0, ptr %5, align 8, !tbaa !3
  store i32 %1, ptr %6, align 4, !tbaa !7
  store ptr %2, ptr %7, align 8, !tbaa !9
  call void @llvm.lifetime.start.p0(i64 8, ptr %8) #4
  call void @llvm.lifetime.start.p0(i64 4, ptr %9) #4
  call void @llvm.lifetime.start.p0(i64 4, ptr %10) #4
  %12 = load ptr, ptr %5, align 8, !tbaa !3
  %13 = load i32, ptr %6, align 4, !tbaa !7
  %14 = load ptr, ptr %7, align 8, !tbaa !9
  %15 = call ptr @fdt_getprop(ptr noundef %12, i32 noundef %13, ptr noundef %14, ptr noundef %10)
  store ptr %15, ptr %8, align 8, !tbaa !11
  %16 = load ptr, ptr %8, align 8, !tbaa !11
  %17 = icmp ne ptr %16, null
  br i1 %17, label %20, label %18

18:                                               ; preds = %3
  %19 = load i32, ptr %10, align 4, !tbaa !7
  store i32 %19, ptr %4, align 4
  store i32 1, ptr %11, align 4
  br label %34

20:                                               ; preds = %3
  %21 = load i32, ptr %10, align 4, !tbaa !7
  %22 = sext i32 %21 to i64
  %23 = icmp ne i64 %22, 4
  br i1 %23, label %24, label %25

24:                                               ; preds = %20
  store i32 -14, ptr %4, align 4
  store i32 1, ptr %11, align 4
  br label %34

25:                                               ; preds = %20
  %26 = load ptr, ptr %8, align 8, !tbaa !11
  %27 = load i32, ptr %26, align 4, !tbaa !7
  %28 = call i32 @fdt32_to_cpu(i32 noundef %27)
  store i32 %28, ptr %9, align 4, !tbaa !7
  %29 = load i32, ptr %9, align 4, !tbaa !7
  %30 = icmp ugt i32 %29, 4
  br i1 %30, label %31, label %32

31:                                               ; preds = %25
  store i32 -14, ptr %4, align 4
  store i32 1, ptr %11, align 4
  br label %34

32:                                               ; preds = %25
  %33 = load i32, ptr %9, align 4, !tbaa !7
  store i32 %33, ptr %4, align 4
  store i32 1, ptr %11, align 4
  br label %34

34:                                               ; preds = %32, %31, %24, %18
  call void @llvm.lifetime.end.p0(i64 4, ptr %10) #4
  call void @llvm.lifetime.end.p0(i64 4, ptr %9) #4
  call void @llvm.lifetime.end.p0(i64 8, ptr %8) #4
  %35 = load i32, ptr %4, align 4
  ret i32 %35
}

; Function Attrs: nounwind uwtable
define i32 @fdt_size_cells(ptr noundef %0, i32 noundef %1) #0 {
  %3 = alloca i32, align 4
  %4 = alloca ptr, align 8
  %5 = alloca i32, align 4
  %6 = alloca i32, align 4
  %7 = alloca i32, align 4
  store ptr %0, ptr %4, align 8, !tbaa !3
  store i32 %1, ptr %5, align 4, !tbaa !7
  call void @llvm.lifetime.start.p0(i64 4, ptr %6) #4
  %8 = load ptr, ptr %4, align 8, !tbaa !3
  %9 = load i32, ptr %5, align 4, !tbaa !7
  %10 = call i32 @fdt_cells(ptr noundef %8, i32 noundef %9, ptr noundef @.str.1)
  store i32 %10, ptr %6, align 4, !tbaa !7
  %11 = load i32, ptr %6, align 4, !tbaa !7
  %12 = icmp eq i32 %11, -1
  br i1 %12, label %13, label %14

13:                                               ; preds = %2
  store i32 1, ptr %3, align 4
  store i32 1, ptr %7, align 4
  br label %16

14:                                               ; preds = %2
  %15 = load i32, ptr %6, align 4, !tbaa !7
  store i32 %15, ptr %3, align 4
  store i32 1, ptr %7, align 4
  br label %16

16:                                               ; preds = %14, %13
  call void @llvm.lifetime.end.p0(i64 4, ptr %6) #4
  %17 = load i32, ptr %3, align 4
  ret i32 %17
}