; Function Attrs: nounwind uwtable
define range(i32 0, -1) i32 @fdt_size_cells(ptr noundef %0, i32 noundef %1) local_unnamed_addr #0 {
  %3 = alloca i32, align 4
  call void @llvm.lifetime.start.p0(i64 4, ptr nonnull %3) #4
  %4 = call ptr @fdt_getprop(ptr noundef %0, i32 noundef %1, ptr noundef nonnull @.str.1, ptr noundef nonnull %3) #4
  %.not.i = icmp eq ptr %4, null
  %5 = load i32, ptr %3, align 4, !tbaa !3
  %.fr = freeze i32 %5
  br i1 %.not.i, label %fdt_cells.exit, label %6

6:                                                ; preds = %2
  %.not9.i = icmp eq i32 %.fr, 4
  br i1 %.not9.i, label %7, label %fdt_cells.exit.thread

7:                                                ; preds = %6
  %8 = load i32, ptr %4, align 4, !tbaa !3
  %rev.i.i = call noundef i32 @llvm.bswap.i32(i32 %8)
  %9 = icmp ugt i32 %rev.i.i, 4
  %spec.select = select i1 %9, i32 -14, i32 %rev.i.i
  br label %fdt_cells.exit.thread

fdt_cells.exit.thread:                            ; preds = %7, %6
  %.0.i.ph = phi i32 [ -14, %6 ], [ %spec.select, %7 ]
  call void @llvm.lifetime.end.p0(i64 4, ptr nonnull %3) #4
  br label %11

fdt_cells.exit:                                   ; preds = %2
  call void @llvm.lifetime.end.p0(i64 4, ptr nonnull %3) #4
  %10 = icmp eq i32 %.fr, -1
  %spec.select7 = select i1 %10, i32 1, i32 %.fr
  br label %11

11:                                               ; preds = %fdt_cells.exit, %fdt_cells.exit.thread
  %12 = phi i32 [ %.0.i.ph, %fdt_cells.exit.thread ], [ %spec.select7, %fdt_cells.exit ]
  ret i32 %12
}